; ModuleID = '24/2643.c'
source_filename = "24/2643.c"
target datalayout = "e-m:e-p270:32:32-p271:32:32-p272:64:64-i64:64-f80:128-n8:16:32:64-S128"
target triple = "x86_64-pc-linux-gnu"

@.str = private unnamed_addr constant [3 x i8] c"%d\00", align 1
@.str.1 = private unnamed_addr constant [3 x i8] c"%s\00", align 1
@.str.2 = private unnamed_addr constant [4 x i8] c"%s\0A\00", align 1

; Function Attrs: noinline nounwind uwtable
define dso_local void @main() #0 {
  %1 = alloca [200 x [100 x i8]], align 16
  %2 = alloca i8*, align 8
  %3 = alloca i32, align 4
  %4 = alloca i32, align 4
  %5 = alloca i32, align 4
  %6 = alloca [200 x i32], align 16
  %7 = alloca i32, align 4
  %8 = alloca i32*, align 8
  %9 = bitcast [200 x [100 x i8]]* %1 to i8*
  call void @llvm.memset.p0i8.i64(i8* align 16 %9, i8 0, i64 20000, i1 false)
  store i32 0, i32* %5, align 4
  %10 = bitcast [200 x i32]* %6 to i8*
  call void @llvm.memset.p0i8.i64(i8* align 16 %10, i8 0, i64 800, i1 false)
  store i32 1000, i32* %7, align 4
  %11 = call i32 (i8*, ...) @__isoc99_scanf(i8* getelementptr inbounds ([3 x i8], [3 x i8]* @.str, i64 0, i64 0), i32* %3)
  store i32 0, i32* %4, align 4
  br label %12

12:                                               ; preds = %23, %0
  %13 = load i32, i32* %4, align 4
  %14 = load i32, i32* %3, align 4
  %15 = icmp slt i32 %13, %14
  br i1 %15, label %16, label %26

16:                                               ; preds = %12
  %17 = getelementptr inbounds [200 x [100 x i8]], [200 x [100 x i8]]* %1, i64 0, i64 0
  %18 = load i32, i32* %4, align 4
  %19 = sext i32 %18 to i64
  %20 = getelementptr inbounds [100 x i8], [100 x i8]* %17, i64 %19
  %21 = getelementptr inbounds [100 x i8], [100 x i8]* %20, i64 0, i64 0
  %22 = call i32 (i8*, ...) @__isoc99_scanf(i8* getelementptr inbounds ([3 x i8], [3 x i8]* @.str.1, i64 0, i64 0), i8* %21)
  br label %23

23:                                               ; preds = %16
  %24 = load i32, i32* %4, align 4
  %25 = add nsw i32 %24, 1
  store i32 %25, i32* %4, align 4
  br label %12

26:                                               ; preds = %12
  store i32 0, i32* %4, align 4
  br label %27

27:                                               ; preds = %42, %26
  %28 = load i32, i32* %4, align 4
  %29 = load i32, i32* %3, align 4
  %30 = icmp slt i32 %28, %29
  br i1 %30, label %31, label %45

31:                                               ; preds = %27
  %32 = getelementptr inbounds [200 x [100 x i8]], [200 x [100 x i8]]* %1, i64 0, i64 0
  %33 = load i32, i32* %4, align 4
  %34 = sext i32 %33 to i64
  %35 = getelementptr inbounds [100 x i8], [100 x i8]* %32, i64 %34
  %36 = getelementptr inbounds [100 x i8], [100 x i8]* %35, i64 0, i64 0
  %37 = call i64 @strlen(i8* %36) #4
  %38 = trunc i64 %37 to i32
  %39 = load i32, i32* %4, align 4
  %40 = sext i32 %39 to i64
  %41 = getelementptr inbounds [200 x i32], [200 x i32]* %6, i64 0, i64 %40
  store i32 %38, i32* %41, align 4
  br label %42

42:                                               ; preds = %31
  %43 = load i32, i32* %4, align 4
  %44 = add nsw i32 %43, 1
  store i32 %44, i32* %4, align 4
  br label %27

45:                                               ; preds = %27
  store i32 0, i32* %4, align 4
  br label %46

46:                                               ; preds = %79, %45
  %47 = load i32, i32* %4, align 4
  %48 = load i32, i32* %3, align 4
  %49 = icmp slt i32 %47, %48
  br i1 %49, label %50, label %82

50:                                               ; preds = %46
  %51 = getelementptr inbounds [200 x i32], [200 x i32]* %6, i64 0, i64 0
  %52 = load i32, i32* %4, align 4
  %53 = sext i32 %52 to i64
  %54 = getelementptr inbounds i32, i32* %51, i64 %53
  %55 = load i32, i32* %54, align 4
  %56 = load i32, i32* %5, align 4
  %57 = icmp sgt i32 %55, %56
  br i1 %57, label %58, label %64

58:                                               ; preds = %50
  %59 = getelementptr inbounds [200 x i32], [200 x i32]* %6, i64 0, i64 0
  %60 = load i32, i32* %4, align 4
  %61 = sext i32 %60 to i64
  %62 = getelementptr inbounds i32, i32* %59, i64 %61
  %63 = load i32, i32* %62, align 4
  store i32 %63, i32* %5, align 4
  br label %64

64:                                               ; preds = %58, %50
  %65 = getelementptr inbounds [200 x i32], [200 x i32]* %6, i64 0, i64 0
  %66 = load i32, i32* %4, align 4
  %67 = sext i32 %66 to i64
  %68 = getelementptr inbounds i32, i32* %65, i64 %67
  %69 = load i32, i32* %68, align 4
  %70 = load i32, i32* %7, align 4
  %71 = icmp slt i32 %69, %70
  br i1 %71, label %72, label %78

72:                                               ; preds = %64
  %73 = getelementptr inbounds [200 x i32], [200 x i32]* %6, i64 0, i64 0
  %74 = load i32, i32* %4, align 4
  %75 = sext i32 %74 to i64
  %76 = getelementptr inbounds i32, i32* %73, i64 %75
  %77 = load i32, i32* %76, align 4
  store i32 %77, i32* %7, align 4
  br label %78

78:                                               ; preds = %72, %64
  br label %79

79:                                               ; preds = %78
  %80 = load i32, i32* %4, align 4
  %81 = add nsw i32 %80, 1
  store i32 %81, i32* %4, align 4
  br label %46

82:                                               ; preds = %46
  store i32 0, i32* %4, align 4
  br label %83

83:                                               ; preds = %101, %82
  %84 = load i32, i32* %4, align 4
  %85 = load i32, i32* %3, align 4
  %86 = icmp slt i32 %84, %85
  br i1 %86, label %87, label %104

87:                                               ; preds = %83
  %88 = load i32, i32* %4, align 4
  %89 = sext i32 %88 to i64
  %90 = getelementptr inbounds [200 x i32], [200 x i32]* %6, i64 0, i64 %89
  %91 = load i32, i32* %90, align 4
  %92 = load i32, i32* %5, align 4
  %93 = icmp eq i32 %91, %92
  br i1 %93, label %94, label %100

94:                                               ; preds = %87
  %95 = load i32, i32* %4, align 4
  %96 = sext i32 %95 to i64
  %97 = getelementptr inbounds [200 x [100 x i8]], [200 x [100 x i8]]* %1, i64 0, i64 %96
  %98 = getelementptr inbounds [100 x i8], [100 x i8]* %97, i64 0, i64 0
  %99 = call i32 (i8*, ...) @printf(i8* getelementptr inbounds ([4 x i8], [4 x i8]* @.str.2, i64 0, i64 0), i8* %98)
  br label %104

100:                                              ; preds = %87
  br label %101

101:                                              ; preds = %100
  %102 = load i32, i32* %4, align 4
  %103 = add nsw i32 %102, 1
  store i32 %103, i32* %4, align 4
  br label %83

104:                                              ; preds = %94, %83
  store i32 0, i32* %4, align 4
  br label %105

105:                                              ; preds = %123, %104
  %106 = load i32, i32* %4, align 4
  %107 = load i32, i32* %3, align 4
  %108 = icmp slt i32 %106, %107
  br i1 %108, label %109, label %126

109:                                              ; preds = %105
  %110 = load i32, i32* %4, align 4
  %111 = sext i32 %110 to i64
  %112 = getelementptr inbounds [200 x i32], [200 x i32]* %6, i64 0, i64 %111
  %113 = load i32, i32* %112, align 4
  %114 = load i32, i32* %7, align 4
  %115 = icmp eq i32 %113, %114
  br i1 %115, label %116, label %122

116:                                              ; preds = %109
  %117 = load i32, i32* %4, align 4
  %118 = sext i32 %117 to i64
  %119 = getelementptr inbounds [200 x [100 x i8]], [200 x [100 x i8]]* %1, i64 0, i64 %118
  %120 = getelementptr inbounds [100 x i8], [100 x i8]* %119, i64 0, i64 0
  %121 = call i32 (i8*, ...) @printf(i8* getelementptr inbounds ([3 x i8], [3 x i8]* @.str.1, i64 0, i64 0), i8* %120)
  br label %126

122:                                              ; preds = %109
  br label %123

123:                                              ; preds = %122
  %124 = load i32, i32* %4, align 4
  %125 = add nsw i32 %124, 1
  store i32 %125, i32* %4, align 4
  br label %105

126:                                              ; preds = %116, %105
  ret void
}

; Function Attrs: argmemonly nounwind willreturn
declare void @llvm.memset.p0i8.i64(i8* nocapture writeonly, i8, i64, i1 immarg) #1

declare dso_local i32 @__isoc99_scanf(i8*, ...) #2

; Function Attrs: nounwind readonly
declare dso_local i64 @strlen(i8*) #3

declare dso_local i32 @printf(i8*, ...) #2


!llvm.module.flags = !{!0}
!llvm.ident = !{!1}

!0 = !{i32 1, !"wchar_size", i32 4}
!1 = !{!"clang version 10.0.0-4ubuntu1 "}
